target datalayout = "e-m:e-p270:32:32-p271:32:32-p272:64:64-i64:64-i128:128-f80:128-n8:16:32:64-S128"
target triple = "x86_64-pc-linux-gnu"

%struct.rb_code_location_struct = type { %struct.rb_code_position_struct, %struct.rb_code_position_struct }
%struct.rb_code_position_struct = type { i32, i32 }
%struct.lex_context = type { i16, [2 x i8] }
%struct.parser_params = type { ptr, ptr, %struct.anon.12, i64, i64, i32, i32, i32, i32, i32, ptr, ptr, ptr, ptr, i32, i32, ptr, i64, ptr, ptr, ptr, ptr, i64, i64, %struct.anon.13, ptr, i32, ptr, i32, i64, %struct.lex_context, ptr, ptr, ptr, i32, i64, ptr, ptr, i32, ptr }
%struct.anon.12 = type { ptr, ptr, ptr, %struct.parser_string_buffer, ptr, ptr, ptr, ptr, ptr, ptr, i32, i32, i32, i32 }
%struct.parser_string_buffer = type { ptr, ptr }
%struct.anon.13 = type { ptr, i32, i32, i32, i32 }
%struct.RNode = type { i64, %struct.rb_code_location_struct, i32 }
%struct.RNode_ARGS_AUX = type { %struct.RNode, i64, i32, ptr }
%struct.RNode_ARGS = type { %struct.RNode, %struct.rb_args_info }
%struct.rb_args_info = type { ptr, ptr, i32, i32, i64, i64, i64, ptr, ptr, ptr, i8 }

@.str.555 = private unnamed_addr constant [3 x i8] c"%s\00", align 1
@.str.923 = private unnamed_addr constant [24 x i8] c"... after rest argument\00", align 1

; Function Attrs: inlinehint nounwind sspstrong uwtable
define internal void @nd_set_line(ptr noundef %0, i64 noundef %1) #2 {
  %3 = alloca ptr, align 8
  %4 = alloca i64, align 8
  store ptr %0, ptr %3, align 8, !tbaa !65
  store i64 %1, ptr %4, align 8, !tbaa !12
  %5 = load ptr, ptr %3, align 8, !tbaa !65
  %6 = getelementptr inbounds nuw %struct.RNode, ptr %5, i32 0, i32 0
  %7 = load i64, ptr %6, align 8, !tbaa !110
  %8 = and i64 %7, 32767
  store i64 %8, ptr %6, align 8, !tbaa !110
  %9 = load i64, ptr %4, align 8, !tbaa !12
  %10 = and i64 %9, 562949953421311
  %11 = shl i64 %10, 15
  %12 = load ptr, ptr %3, align 8, !tbaa !65
  %13 = getelementptr inbounds nuw %struct.RNode, ptr %12, i32 0, i32 0
  %14 = load i64, ptr %13, align 8, !tbaa !110
  %15 = or i64 %14, %11
  store i64 %15, ptr %13, align 8, !tbaa !110
  ret void
}

; Function Attrs: inlinehint nounwind sspstrong uwtable
define internal void @parser_show_error_line(ptr noundef %0, ptr noundef %1) #2 {
  %3 = alloca ptr, align 8
  %4 = alloca ptr, align 8
  %5 = alloca ptr, align 8
  %6 = alloca i32, align 4
  %7 = alloca i32, align 4
  store ptr %0, ptr %3, align 8, !tbaa !7
  store ptr %1, ptr %4, align 8, !tbaa !39
  call void @llvm.lifetime.start.p0(i64 8, ptr %5) #26
  call void @llvm.lifetime.start.p0(i64 4, ptr %6) #26
  %8 = load ptr, ptr %3, align 8, !tbaa !7
  %9 = getelementptr inbounds nuw %struct.parser_params, ptr %8, i32 0, i32 15
  %10 = load i32, ptr %9, align 4, !tbaa !82
  store i32 %10, ptr %6, align 4, !tbaa !34
  %11 = load ptr, ptr %4, align 8, !tbaa !39
  %12 = icmp ne ptr %11, null
  br i1 %12, label %14, label %13

13:                                               ; preds = %2
  store i32 1, ptr %7, align 4
  br label %36

14:                                               ; preds = %2
  %15 = load ptr, ptr %4, align 8, !tbaa !39
  %16 = getelementptr inbounds nuw %struct.rb_code_location_struct, ptr %15, i32 0, i32 0
  %17 = getelementptr inbounds nuw %struct.rb_code_position_struct, ptr %16, i32 0, i32 0
  %18 = load i32, ptr %17, align 4, !tbaa !173
  %19 = load i32, ptr %6, align 4, !tbaa !34
  %20 = icmp eq i32 %18, %19
  br i1 %20, label %21, label %26

21:                                               ; preds = %14
  %22 = load ptr, ptr %3, align 8, !tbaa !7
  %23 = getelementptr inbounds nuw %struct.parser_params, ptr %22, i32 0, i32 2
  %24 = getelementptr inbounds nuw %struct.anon.12, ptr %23, i32 0, i32 4
  %25 = load ptr, ptr %24, align 8, !tbaa !590
  store ptr %25, ptr %5, align 8, !tbaa !14
  br label %27

26:                                               ; preds = %14
  store i32 1, ptr %7, align 4
  br label %36

27:                                               ; preds = %21
  br label %28

28:                                               ; preds = %27
  %29 = load ptr, ptr %3, align 8, !tbaa !7
  %30 = load ptr, ptr %3, align 8, !tbaa !7
  %31 = getelementptr inbounds nuw %struct.parser_params, ptr %30, i32 0, i32 35
  %32 = load i64, ptr %31, align 8, !tbaa !453
  %33 = load ptr, ptr %4, align 8, !tbaa !39
  %34 = load i32, ptr %6, align 4, !tbaa !34
  %35 = load ptr, ptr %5, align 8, !tbaa !14
  call void @ruby_show_error_line(ptr noundef %29, i64 noundef %32, ptr noundef %33, i32 noundef %34, ptr noundef %35)
  store i32 0, ptr %7, align 4
  br label %36

36:                                               ; preds = %28, %26, %13
  call void @llvm.lifetime.end.p0(i64 4, ptr %6) #26
  call void @llvm.lifetime.end.p0(i64 8, ptr %5) #26
  %37 = load i32, ptr %7, align 4
  switch i32 %37, label %39 [
    i32 0, label %38
    i32 1, label %38
  ]

38:                                               ; preds = %36, %36
  ret void

39:                                               ; preds = %36
  unreachable
}

; Function Attrs: nounwind sspstrong uwtable
define internal ptr @nd_set_loc(ptr noundef %0, ptr noundef %1) #0 {
  %3 = alloca ptr, align 8
  %4 = alloca ptr, align 8
  store ptr %0, ptr %3, align 8, !tbaa !65
  store ptr %1, ptr %4, align 8, !tbaa !39
  %5 = load ptr, ptr %3, align 8, !tbaa !65
  %6 = getelementptr inbounds nuw %struct.RNode, ptr %5, i32 0, i32 1
  %7 = load ptr, ptr %4, align 8, !tbaa !39
  call void @llvm.memcpy.p0.p0.i64(ptr align 8 %6, ptr align 4 %7, i64 16, i1 false), !tbaa.struct !33
  %8 = load ptr, ptr %3, align 8, !tbaa !65
  %9 = load ptr, ptr %4, align 8, !tbaa !39
  %10 = getelementptr inbounds nuw %struct.rb_code_location_struct, ptr %9, i32 0, i32 0
  %11 = getelementptr inbounds nuw %struct.rb_code_position_struct, ptr %10, i32 0, i32 0
  %12 = load i32, ptr %11, align 4, !tbaa !173
  %13 = sext i32 %12 to i64
  call void @nd_set_line(ptr noundef %8, i64 noundef %13)
  %14 = load ptr, ptr %3, align 8, !tbaa !65
  ret ptr %14
}

; Function Attrs: nounwind sspstrong uwtable
define internal i32 @parser_yyerror(ptr noundef nonnull %0, ptr noundef nonnull %1, ptr noundef nonnull %2) #0 {
  %4 = alloca ptr, align 8
  %5 = alloca ptr, align 8
  %6 = alloca ptr, align 8
  store ptr %0, ptr %4, align 8, !tbaa !7
  store ptr %1, ptr %5, align 8, !tbaa !39
  store ptr %2, ptr %6, align 8, !tbaa !19
  %7 = load ptr, ptr %4, align 8, !tbaa !7
  %8 = load ptr, ptr %5, align 8, !tbaa !39
  %9 = load ptr, ptr %6, align 8, !tbaa !19
  call void (ptr, ptr, ptr, ...) @parser_compile_error(ptr noundef %7, ptr noundef %8, ptr noundef @.str.555, ptr noundef %9)
  %10 = load ptr, ptr %4, align 8, !tbaa !7
  %11 = load ptr, ptr %5, align 8, !tbaa !39
  call void @parser_show_error_line(ptr noundef %10, ptr noundef %11)
  ret i32 0
}

; Function Attrs: nounwind sspstrong uwtable
define internal ptr @new_args(ptr noundef %0, ptr noundef %1, ptr noundef %2, i64 noundef %3, ptr noundef %4, ptr noundef %5, ptr noundef %6) #0 {
  %8 = alloca ptr, align 8
  %9 = alloca ptr, align 8
  %10 = alloca ptr, align 8
  %11 = alloca ptr, align 8
  %12 = alloca i64, align 8
  %13 = alloca ptr, align 8
  %14 = alloca ptr, align 8
  %15 = alloca ptr, align 8
  %16 = alloca ptr, align 8
  %17 = alloca i32, align 4
  store ptr %0, ptr %9, align 8, !tbaa !7
  store ptr %1, ptr %10, align 8, !tbaa !105
  store ptr %2, ptr %11, align 8, !tbaa !402
  store i64 %3, ptr %12, align 8, !tbaa !12
  store ptr %4, ptr %13, align 8, !tbaa !105
  store ptr %5, ptr %14, align 8, !tbaa !114
  store ptr %6, ptr %15, align 8, !tbaa !39
  call void @llvm.lifetime.start.p0(i64 8, ptr %16) #26
  %18 = load ptr, ptr %14, align 8, !tbaa !114
  %19 = getelementptr inbounds nuw %struct.RNode_ARGS, ptr %18, i32 0, i32 1
  store ptr %19, ptr %16, align 8, !tbaa !404
  %20 = load ptr, ptr %16, align 8, !tbaa !404
  %21 = getelementptr inbounds nuw %struct.rb_args_info, ptr %20, i32 0, i32 10
  %22 = load i8, ptr %21, align 8
  %23 = lshr i8 %22, 2
  %24 = and i8 %23, 1
  %25 = zext i8 %24 to i32
  %26 = icmp ne i32 %25, 0
  br i1 %26, label %27, label %37

27:                                               ; preds = %7
  %28 = load i64, ptr %12, align 8, !tbaa !12
  %29 = icmp ne i64 %28, 0
  br i1 %29, label %30, label %36

30:                                               ; preds = %27
  %31 = load ptr, ptr %9, align 8, !tbaa !7
  %32 = load ptr, ptr %14, align 8, !tbaa !114
  %33 = getelementptr inbounds nuw %struct.RNode, ptr %32, i32 0, i32 1
  %34 = call i32 @parser_yyerror(ptr noundef %31, ptr noundef %33, ptr noundef @.str.923)
  %35 = load ptr, ptr %14, align 8, !tbaa !114
  store ptr %35, ptr %8, align 8
  store i32 1, ptr %17, align 4
  br label %108

36:                                               ; preds = %27
  store i64 42, ptr %12, align 8, !tbaa !12
  br label %37

37:                                               ; preds = %36, %7
  %38 = load ptr, ptr %10, align 8, !tbaa !105
  %39 = icmp ne ptr %38, null
  br i1 %39, label %40, label %44

40:                                               ; preds = %37
  %41 = load ptr, ptr %10, align 8, !tbaa !105
  %42 = getelementptr inbounds nuw %struct.RNode_ARGS_AUX, ptr %41, i32 0, i32 2
  %43 = load i32, ptr %42, align 8, !tbaa !111
  br label %45

44:                                               ; preds = %37
  br label %45

45:                                               ; preds = %44, %40
  %46 = phi i32 [ %43, %40 ], [ 0, %44 ]
  %47 = load ptr, ptr %16, align 8, !tbaa !404
  %48 = getelementptr inbounds nuw %struct.rb_args_info, ptr %47, i32 0, i32 2
  store i32 %46, ptr %48, align 8, !tbaa !406
  %49 = load ptr, ptr %10, align 8, !tbaa !105
  %50 = icmp ne ptr %49, null
  br i1 %50, label %51, label %55

51:                                               ; preds = %45
  %52 = load ptr, ptr %10, align 8, !tbaa !105
  %53 = getelementptr inbounds nuw %struct.RNode_ARGS_AUX, ptr %52, i32 0, i32 3
  %54 = load ptr, ptr %53, align 8, !tbaa !113
  br label %56

55:                                               ; preds = %45
  br label %56

56:                                               ; preds = %55, %51
  %57 = phi ptr [ %54, %51 ], [ null, %55 ]
  %58 = load ptr, ptr %16, align 8, !tbaa !404
  %59 = getelementptr inbounds nuw %struct.rb_args_info, ptr %58, i32 0, i32 0
  store ptr %57, ptr %59, align 8, !tbaa !409
  %60 = load ptr, ptr %13, align 8, !tbaa !105
  %61 = icmp ne ptr %60, null
  br i1 %61, label %62, label %66

62:                                               ; preds = %56
  %63 = load ptr, ptr %13, align 8, !tbaa !105
  %64 = getelementptr inbounds nuw %struct.RNode_ARGS_AUX, ptr %63, i32 0, i32 2
  %65 = load i32, ptr %64, align 8, !tbaa !111
  br label %67

66:                                               ; preds = %56
  br label %67

67:                                               ; preds = %66, %62
  %68 = phi i32 [ %65, %62 ], [ 0, %66 ]
  %69 = load ptr, ptr %16, align 8, !tbaa !404
  %70 = getelementptr inbounds nuw %struct.rb_args_info, ptr %69, i32 0, i32 3
  store i32 %68, ptr %70, align 4, !tbaa !410
  %71 = load ptr, ptr %13, align 8, !tbaa !105
  %72 = icmp ne ptr %71, null
  br i1 %72, label %73, label %77

73:                                               ; preds = %67
  %74 = load ptr, ptr %13, align 8, !tbaa !105
  %75 = getelementptr inbounds nuw %struct.RNode_ARGS_AUX, ptr %74, i32 0, i32 3
  %76 = load ptr, ptr %75, align 8, !tbaa !113
  br label %78

77:                                               ; preds = %67
  br label %78

78:                                               ; preds = %77, %73
  %79 = phi ptr [ %76, %73 ], [ null, %77 ]
  %80 = load ptr, ptr %16, align 8, !tbaa !404
  %81 = getelementptr inbounds nuw %struct.rb_args_info, ptr %80, i32 0, i32 1
  store ptr %79, ptr %81, align 8, !tbaa !411
  %82 = load ptr, ptr %13, align 8, !tbaa !105
  %83 = icmp ne ptr %82, null
  br i1 %83, label %84, label %88

84:                                               ; preds = %78
  %85 = load ptr, ptr %13, align 8, !tbaa !105
  %86 = getelementptr inbounds nuw %struct.RNode_ARGS_AUX, ptr %85, i32 0, i32 1
  %87 = load i64, ptr %86, align 8, !tbaa !381
  br label %89

88:                                               ; preds = %78
  br label %89

89:                                               ; preds = %88, %84
  %90 = phi i64 [ %87, %84 ], [ 0, %88 ]
  %91 = load ptr, ptr %16, align 8, !tbaa !404
  %92 = getelementptr inbounds nuw %struct.rb_args_info, ptr %91, i32 0, i32 4
  store i64 %90, ptr %92, align 8, !tbaa !412
  %93 = load i64, ptr %12, align 8, !tbaa !12
  %94 = load ptr, ptr %16, align 8, !tbaa !404
  %95 = getelementptr inbounds nuw %struct.rb_args_info, ptr %94, i32 0, i32 5
  store i64 %93, ptr %95, align 8, !tbaa !413
  %96 = load ptr, ptr %11, align 8, !tbaa !402
  %97 = load ptr, ptr %16, align 8, !tbaa !404
  %98 = getelementptr inbounds nuw %struct.rb_args_info, ptr %97, i32 0, i32 9
  store ptr %96, ptr %98, align 8, !tbaa !414
  %99 = load ptr, ptr %16, align 8, !tbaa !404
  %100 = getelementptr inbounds nuw %struct.rb_args_info, ptr %99, i32 0, i32 10
  %101 = load i8, ptr %100, align 8
  %102 = and i8 %101, -3
  %103 = or i8 %102, 0
  store i8 %103, ptr %100, align 8
  %104 = load ptr, ptr %14, align 8, !tbaa !114
  %105 = load ptr, ptr %15, align 8, !tbaa !39
  %106 = call ptr @nd_set_loc(ptr noundef %104, ptr noundef %105)
  %107 = load ptr, ptr %14, align 8, !tbaa !114
  store ptr %107, ptr %8, align 8
  store i32 1, ptr %17, align 4
  br label %108

108:                                              ; preds = %89, %30
  call void @llvm.lifetime.end.p0(i64 8, ptr %16) #26
  %109 = load ptr, ptr %8, align 8
  ret ptr %109
}