; Function Attrs: nounwind sspstrong uwtable
define internal fastcc noundef ptr @new_args(ptr noundef captures(none) %0, ptr noundef readonly captures(address_is_null) %1, ptr noundef %2, i64 noundef %3, ptr noundef readonly captures(address_is_null) %4, ptr noundef returned captures(address_is_null, ret: address, provenance) %5, ptr noundef readonly captures(none) %6) unnamed_addr #0 {
  %8 = getelementptr inbounds nuw i8, ptr %5, i64 32
  %9 = getelementptr inbounds nuw i8, ptr %5, i64 104
  %10 = load i8, ptr %9, align 8
  %11 = and i8 %10, 4
  %.not = icmp eq i8 %11, 0
  br i1 %.not, label %24, label %12

12:                                               ; preds = %7
  %.not32 = icmp eq i64 %3, 0
  br i1 %.not32, label %24, label %13

13:                                               ; preds = %12
  %14 = getelementptr inbounds nuw i8, ptr %5, i64 8
  tail call void (ptr, ptr, ptr, ...) @parser_compile_error(ptr noundef nonnull %0, ptr noundef nonnull %14, ptr noundef nonnull @.str.555, ptr noundef nonnull @.str.923)
  %15 = getelementptr inbounds nuw i8, ptr %0, i64 196
  %16 = load i32, ptr %15, align 4, !tbaa !31
  %17 = load i32, ptr %14, align 4, !tbaa !53
  %18 = icmp eq i32 %17, %16
  br i1 %18, label %19, label %parser_yyerror.exit

19:                                               ; preds = %13
  %20 = getelementptr inbounds nuw i8, ptr %0, i64 56
  %21 = load ptr, ptr %20, align 8, !tbaa !185
  %22 = getelementptr inbounds nuw i8, ptr %0, i64 368
  %23 = load i64, ptr %22, align 8, !tbaa !186
  tail call void @ruby_show_error_line(ptr nonnull readonly poison, i64 noundef %23, ptr noundef nonnull %14, i32 noundef %16, ptr noundef %21)
  br label %parser_yyerror.exit

24:                                               ; preds = %12, %7
  %.029 = phi i64 [ %3, %7 ], [ 42, %12 ]
  %.not33 = icmp eq ptr %1, null
  br i1 %.not33, label %.critedge, label %25

25:                                               ; preds = %24
  %26 = getelementptr inbounds nuw i8, ptr %1, i64 40
  %27 = load i32, ptr %26, align 8, !tbaa !131
  %28 = getelementptr inbounds nuw i8, ptr %1, i64 48
  %29 = load ptr, ptr %28, align 8, !tbaa !133
  br label %.critedge

.critedge:                                        ; preds = %24, %25
  %.sink = phi i32 [ %27, %25 ], [ 0, %24 ]
  %30 = phi ptr [ %29, %25 ], [ null, %24 ]
  %31 = getelementptr inbounds nuw i8, ptr %5, i64 48
  store i32 %.sink, ptr %31, align 8, !tbaa !394
  store ptr %30, ptr %8, align 8, !tbaa !395
  %.not34 = icmp eq ptr %4, null
  br i1 %.not34, label %.thread, label %32

32:                                               ; preds = %.critedge
  %33 = getelementptr inbounds nuw i8, ptr %4, i64 40
  %34 = load i32, ptr %33, align 8, !tbaa !131
  %35 = getelementptr inbounds nuw i8, ptr %4, i64 48
  %36 = load ptr, ptr %35, align 8, !tbaa !133
  %37 = getelementptr inbounds nuw i8, ptr %4, i64 32
  %38 = load i64, ptr %37, align 8, !tbaa !389
  br label %.thread

.thread:                                          ; preds = %.critedge, %32
  %.sink40 = phi i32 [ %34, %32 ], [ 0, %.critedge ]
  %.sink39 = phi ptr [ %36, %32 ], [ null, %.critedge ]
  %39 = phi i64 [ %38, %32 ], [ 0, %.critedge ]
  %40 = getelementptr inbounds nuw i8, ptr %5, i64 52
  store i32 %.sink40, ptr %40, align 4, !tbaa !396
  %41 = getelementptr inbounds nuw i8, ptr %5, i64 40
  store ptr %.sink39, ptr %41, align 8, !tbaa !397
  %42 = getelementptr inbounds nuw i8, ptr %5, i64 56
  store i64 %39, ptr %42, align 8, !tbaa !398
  %43 = getelementptr inbounds nuw i8, ptr %5, i64 64
  store i64 %.029, ptr %43, align 8, !tbaa !155
  %44 = getelementptr inbounds nuw i8, ptr %5, i64 96
  store ptr %2, ptr %44, align 8, !tbaa !158
  %45 = and i8 %10, -3
  store i8 %45, ptr %9, align 8
  %46 = getelementptr inbounds nuw i8, ptr %5, i64 8
  tail call void @llvm.memcpy.p0.p0.i64(ptr noundef nonnull align 8 dereferenceable(16) %46, ptr noundef nonnull readonly align 4 dereferenceable(16) %6, i64 16, i1 false), !tbaa.struct !59
  %47 = load i32, ptr %6, align 4, !tbaa !53
  %48 = sext i32 %47 to i64
  %49 = load i64, ptr %5, align 8, !tbaa !72
  %50 = and i64 %49, 32767
  %51 = shl nsw i64 %48, 15
  %52 = or disjoint i64 %50, %51
  store i64 %52, ptr %5, align 8, !tbaa !72
  br label %parser_yyerror.exit

parser_yyerror.exit:                              ; preds = %19, %13, %.thread
  ret ptr %5
}